target datalayout = "e-m:e-p270:32:32-p271:32:32-p272:64:64-i64:64-i128:128-f80:128-n8:16:32:64-S128"
target triple = "x86_64-pc-linux-gnu"

%struct.rb_data_type_struct = type { ptr, %struct.anon, ptr, ptr, i64 }
%struct.anon = type { ptr, ptr, ptr, ptr, [1 x ptr] }
%struct.rb_io_buffer = type { ptr, i64, i32, i64 }

@rb_io_buffer_type = internal constant %struct.rb_data_type_struct { ptr @.str.108, %struct.anon { ptr @rb_io_buffer_type_mark, ptr @rb_io_buffer_type_free, ptr @rb_io_buffer_type_size, ptr null, [1 x ptr] zeroinitializer }, ptr null, ptr null, i64 35 }, align 8

; Function Attrs: nounwind sspstrong uwtable
define hidden i32 @rb_io_buffer_readonly_p(i64 noundef %0) #0 {
  %2 = alloca i64, align 8
  %3 = alloca ptr, align 8
  store i64 %0, ptr %2, align 8, !tbaa !20
  call void @llvm.lifetime.start.p0(i64 8, ptr %3) #22
  store ptr null, ptr %3, align 8, !tbaa !11
  %4 = load i64, ptr %2, align 8, !tbaa !20
  %5 = call ptr @rb_check_typeddata(i64 noundef %4, ptr noundef @rb_io_buffer_type)
  store ptr %5, ptr %3, align 8, !tbaa !11
  %6 = load ptr, ptr %3, align 8, !tbaa !11
  %7 = getelementptr inbounds nuw %struct.rb_io_buffer, ptr %6, i32 0, i32 2
  %8 = load i32, ptr %7, align 8, !tbaa !18
  %9 = and i32 %8, 128
  call void @llvm.lifetime.end.p0(i64 8, ptr %3) #22
  ret i32 %9
}

; Function Attrs: nounwind sspstrong uwtable
define internal i64 @io_buffer_readonly_p(i64 noundef %0) #0 {
  %2 = alloca i64, align 8
  store i64 %0, ptr %2, align 8, !tbaa !20
  %3 = load i64, ptr %2, align 8, !tbaa !20
  %4 = call i32 @rb_io_buffer_readonly_p(i64 noundef %3)
  %5 = icmp ne i32 %4, 0
  %6 = select i1 %5, i64 20, i64 0
  ret i64 %6
}